; Function Attrs: mustprogress uwtable
define noundef ptr @_Z27grpc_channel_arg_get_stringPK8grpc_arg(ptr noundef %0) local_unnamed_addr #9 personality ptr @__gxx_personality_v0 {
  %2 = alloca %"class.absl::lts_20240722::log_internal::LogMessage", align 8
  %3 = icmp eq ptr %0, null
  br i1 %3, label %15, label %4

4:                                                ; preds = %1
  %5 = load i32, ptr %0, align 8, !tbaa !37
  %.not = icmp eq i32 %5, 0
  br i1 %.not, label %12, label %6

6:                                                ; preds = %4
  call void @llvm.lifetime.start.p0(i64 16, ptr nonnull %2) #37
  call void @_ZN4absl12lts_2024072212log_internal10LogMessageC1EPKciNS2_8ErrorTagE(ptr noundef nonnull align 8 dereferenceable(16) %2, ptr noundef nonnull @.str.3, i32 noundef 581) #39
  %7 = getelementptr inbounds nuw i8, ptr %0, i64 8
  %8 = invoke noundef nonnull align 8 dereferenceable(16) ptr @_ZN4absl12lts_2024072212log_internal10LogMessagelsIPcTnNSt9enable_ifIXntsr4absl16HasAbslStringifyIT_EE5valueEiE4typeELi0EEERS2_RKS6_(ptr noundef nonnull align 8 dereferenceable(16) %2, ptr noundef nonnull align 8 dereferenceable(8) %7)
          to label %9 unwind label %10

9:                                                ; preds = %6
  invoke void @_ZN4absl12lts_2024072212log_internal10LogMessage19CopyToEncodedBufferILNS2_10StringTypeE0EEEvSt17basic_string_viewIcSt11char_traitsIcEE(ptr noundef nonnull align 8 dereferenceable(16) %8, i64 30, ptr nonnull @.str.13)
          to label %_ZN4absl12lts_2024072212log_internal10LogMessagelsILi31EEERS2_RAT__Kc.exit unwind label %10

_ZN4absl12lts_2024072212log_internal10LogMessagelsILi31EEERS2_RAT__Kc.exit: ; preds = %9
  call void @_ZN4absl12lts_2024072212log_internal10LogMessageD1Ev(ptr noundef nonnull align 8 dereferenceable(16) %2) #40
  call void @llvm.lifetime.end.p0(i64 16, ptr nonnull %2) #37
  br label %15

10:                                               ; preds = %9, %6
  %11 = landingpad { ptr, i32 }
          cleanup
  call void @_ZN4absl12lts_2024072212log_internal10LogMessageD1Ev(ptr noundef nonnull align 8 dereferenceable(16) %2) #40
  call void @llvm.lifetime.end.p0(i64 16, ptr nonnull %2) #37
  resume { ptr, i32 } %11

12:                                               ; preds = %4
  %13 = getelementptr inbounds nuw i8, ptr %0, i64 16
  %14 = load ptr, ptr %13, align 8, !tbaa !41
  br label %15

15:                                               ; preds = %1, %12, %_ZN4absl12lts_2024072212log_internal10LogMessagelsILi31EEERS2_RAT__Kc.exit
  %.0 = phi ptr [ null, %_ZN4absl12lts_2024072212log_internal10LogMessagelsILi31EEERS2_RAT__Kc.exit ], [ %14, %12 ], [ null, %1 ]
  ret ptr %.0
}